target datalayout = "e-m:e-p270:32:32-p271:32:32-p272:64:64-i64:64-i128:128-f80:128-n8:16:32:64-S128"
target triple = "x86_64-pc-linux-gnu"

%struct.Agi_Man_t_ = type { ptr, ptr, i32, i32, i32, i32, i32, %struct.Vec_Int_t_, %struct.Vec_Int_t_, ptr, ptr, ptr, ptr, ptr, ptr }
%struct.Vec_Int_t_ = type { i32, i32, ptr }
%struct.timespec = type { i64, i64 }

@.str = private unnamed_addr constant [41 x i8] c"Nodes with small support %d (out of %d)\0A\00", align 1
@.str.1 = private unnamed_addr constant [5 x i8] c"Time\00", align 1
@.str.2 = private unnamed_addr constant [5 x i8] c"%s =\00", align 1
@.str.3 = private unnamed_addr constant [11 x i8] c"%9.2f sec\0A\00", align 1

; Function Attrs: inlinehint nounwind uwtable
define internal void @Abc_PrintTime(i32 noundef %0, ptr noundef %1, i64 noundef %2) #2 {
  %4 = alloca i32, align 4
  %5 = alloca ptr, align 8
  %6 = alloca i64, align 8
  store i32 %0, ptr %4, align 4, !tbaa !3
  store ptr %1, ptr %5, align 8, !tbaa !50
  store i64 %2, ptr %6, align 8, !tbaa !18
  %7 = load ptr, ptr %5, align 8, !tbaa !50
  call void (i32, ptr, ...) @Abc_Print(i32 noundef 1, ptr noundef @.str.2, ptr noundef %7)
  %8 = load i64, ptr %6, align 8, !tbaa !18
  %9 = sitofp i64 %8 to double
  %10 = fmul double 1.000000e+00, %9
  %11 = fdiv double %10, 1.000000e+06
  call void (i32, ptr, ...) @Abc_Print(i32 noundef 1, ptr noundef @.str.3, double noundef %11)
  ret void
}

; Function Attrs: inlinehint nounwind uwtable
define internal i32 @Agi_ManNodeNum(ptr noundef %0) #2 {
  %2 = alloca ptr, align 8
  store ptr %0, ptr %2, align 8, !tbaa !7
  %3 = load ptr, ptr %2, align 8, !tbaa !7
  %4 = getelementptr inbounds nuw %struct.Agi_Man_t_, ptr %3, i32 0, i32 4
  %5 = load i32, ptr %4, align 8, !tbaa !47
  ret i32 %5
}

; Function Attrs: nounwind uwtable
define i32 @Agi_ManSuppSizeOne(ptr noundef %0, i32 noundef %1) #0 {
  %3 = alloca ptr, align 8
  %4 = alloca i32, align 4
  store ptr %0, ptr %3, align 8, !tbaa !7
  store i32 %1, ptr %4, align 4, !tbaa !3
  %5 = load ptr, ptr %3, align 8, !tbaa !7
  %6 = getelementptr inbounds nuw %struct.Agi_Man_t_, ptr %5, i32 0, i32 6
  %7 = load i32, ptr %6, align 8, !tbaa !48
  %8 = add i32 %7, 1
  store i32 %8, ptr %6, align 8, !tbaa !48
  %9 = load ptr, ptr %3, align 8, !tbaa !7
  %10 = load i32, ptr %4, align 4, !tbaa !3
  %11 = call i32 @Agi_ManSuppSize_rec(ptr noundef %9, i32 noundef %10)
  ret i32 %11
}

; Function Attrs: inlinehint nounwind uwtable
define internal i32 @Agi_ObjIsNode(ptr noundef %0, i32 noundef %1) #2 {
  %3 = alloca ptr, align 8
  %4 = alloca i32, align 4
  store ptr %0, ptr %3, align 8, !tbaa !7
  store i32 %1, ptr %4, align 4, !tbaa !3
  %5 = load ptr, ptr %3, align 8, !tbaa !7
  %6 = getelementptr inbounds nuw %struct.Agi_Man_t_, ptr %5, i32 0, i32 9
  %7 = load ptr, ptr %6, align 8, !tbaa !16
  %8 = load i32, ptr %4, align 4, !tbaa !3
  %9 = sext i32 %8 to i64
  %10 = getelementptr inbounds i64, ptr %7, i64 %9
  %11 = load i64, ptr %10, align 8, !tbaa !18
  %12 = icmp ult i64 %11, -17179869190
  %13 = zext i1 %12 to i32
  ret i32 %13
}

; Function Attrs: inlinehint nounwind uwtable
define internal i32 @Agi_ManObjNum(ptr noundef %0) #2 {
  %2 = alloca ptr, align 8
  store ptr %0, ptr %2, align 8, !tbaa !7
  %3 = load ptr, ptr %2, align 8, !tbaa !7
  %4 = getelementptr inbounds nuw %struct.Agi_Man_t_, ptr %3, i32 0, i32 3
  %5 = load i32, ptr %4, align 4, !tbaa !20
  ret i32 %5
}

; Function Attrs: inlinehint nounwind uwtable
define internal i64 @Abc_Clock() #2 {
  %1 = alloca i64, align 8
  %2 = alloca %struct.timespec, align 8
  %3 = alloca i32, align 4
  %4 = alloca i64, align 8
  call void @llvm.lifetime.start.p0(i64 16, ptr %2) #10
  %5 = call i32 @clock_gettime(i32 noundef 1, ptr noundef %2) #10
  %6 = icmp slt i32 %5, 0
  br i1 %6, label %7, label %8

7:                                                ; preds = %0
  store i64 -1, ptr %1, align 8
  store i32 1, ptr %3, align 4
  br label %19

8:                                                ; preds = %0
  call void @llvm.lifetime.start.p0(i64 8, ptr %4) #10
  %9 = getelementptr inbounds nuw %struct.timespec, ptr %2, i32 0, i32 0
  %10 = load i64, ptr %9, align 8, !tbaa !55
  %11 = mul nsw i64 %10, 1000000
  store i64 %11, ptr %4, align 8, !tbaa !18
  %12 = getelementptr inbounds nuw %struct.timespec, ptr %2, i32 0, i32 1
  %13 = load i64, ptr %12, align 8, !tbaa !57
  %14 = mul nsw i64 %13, 1000000
  %15 = sdiv i64 %14, 1000000000
  %16 = load i64, ptr %4, align 8, !tbaa !18
  %17 = add nsw i64 %16, %15
  store i64 %17, ptr %4, align 8, !tbaa !18
  %18 = load i64, ptr %4, align 8, !tbaa !18
  store i64 %18, ptr %1, align 8
  store i32 1, ptr %3, align 4
  call void @llvm.lifetime.end.p0(i64 8, ptr %4) #10
  br label %19

19:                                               ; preds = %8, %7
  call void @llvm.lifetime.end.p0(i64 16, ptr %2) #10
  %20 = load i64, ptr %1, align 8
  ret i64 %20
}

; Function Attrs: nounwind uwtable
define i32 @Agi_ManSuppSizeTest(ptr noundef %0) #0 {
  %2 = alloca ptr, align 8
  %3 = alloca i64, align 8
  %4 = alloca i32, align 4
  %5 = alloca i32, align 4
  store ptr %0, ptr %2, align 8, !tbaa !7
  call void @llvm.lifetime.start.p0(i64 8, ptr %3) #10
  %6 = call i64 @Abc_Clock()
  store i64 %6, ptr %3, align 8, !tbaa !18
  call void @llvm.lifetime.start.p0(i64 4, ptr %4) #10
  call void @llvm.lifetime.start.p0(i64 4, ptr %5) #10
  store i32 0, ptr %5, align 4, !tbaa !3
  store i32 1, ptr %4, align 4, !tbaa !3
  br label %7

7:                                                ; preds = %27, %1
  %8 = load i32, ptr %4, align 4, !tbaa !3
  %9 = load ptr, ptr %2, align 8, !tbaa !7
  %10 = call i32 @Agi_ManObjNum(ptr noundef %9)
  %11 = icmp slt i32 %8, %10
  br i1 %11, label %12, label %30

12:                                               ; preds = %7
  %13 = load ptr, ptr %2, align 8, !tbaa !7
  %14 = load i32, ptr %4, align 4, !tbaa !3
  %15 = call i32 @Agi_ObjIsNode(ptr noundef %13, i32 noundef %14)
  %16 = icmp ne i32 %15, 0
  br i1 %16, label %18, label %17

17:                                               ; preds = %12
  br label %26

18:                                               ; preds = %12
  %19 = load ptr, ptr %2, align 8, !tbaa !7
  %20 = load i32, ptr %4, align 4, !tbaa !3
  %21 = call i32 @Agi_ManSuppSizeOne(ptr noundef %19, i32 noundef %20)
  %22 = icmp sle i32 %21, 16
  %23 = zext i1 %22 to i32
  %24 = load i32, ptr %5, align 4, !tbaa !3
  %25 = add nsw i32 %24, %23
  store i32 %25, ptr %5, align 4, !tbaa !3
  br label %26

26:                                               ; preds = %18, %17
  br label %27

27:                                               ; preds = %26
  %28 = load i32, ptr %4, align 4, !tbaa !3
  %29 = add nsw i32 %28, 1
  store i32 %29, ptr %4, align 4, !tbaa !3
  br label %7, !llvm.loop !49

30:                                               ; preds = %7
  %31 = load i32, ptr %5, align 4, !tbaa !3
  %32 = load ptr, ptr %2, align 8, !tbaa !7
  %33 = call i32 @Agi_ManNodeNum(ptr noundef %32)
  %34 = call i32 (ptr, ...) @printf(ptr noundef @.str, i32 noundef %31, i32 noundef %33)
  %35 = call i64 @Abc_Clock()
  %36 = load i64, ptr %3, align 8, !tbaa !18
  %37 = sub nsw i64 %35, %36
  call void @Abc_PrintTime(i32 noundef 1, ptr noundef @.str.1, i64 noundef %37)
  %38 = load i32, ptr %5, align 4, !tbaa !3
  call void @llvm.lifetime.end.p0(i64 4, ptr %5) #10
  call void @llvm.lifetime.end.p0(i64 4, ptr %4) #10
  call void @llvm.lifetime.end.p0(i64 8, ptr %3) #10
  ret i32 %38
}