; Function Attrs: nounwind uwtable
define noundef i32 @Agi_ManSuppSizeTest(ptr noundef captures(none) %0) local_unnamed_addr #5 {
  %2 = alloca %struct.timespec, align 8
  %3 = alloca %struct.timespec, align 8
  call void @llvm.lifetime.start.p0(i64 16, ptr nonnull %3) #17
  %4 = call i32 @clock_gettime(i32 noundef 1, ptr noundef nonnull %3) #17
  %5 = icmp slt i32 %4, 0
  br i1 %5, label %Abc_Clock.exit, label %6

6:                                                ; preds = %1
  %7 = load i64, ptr %3, align 8, !tbaa !48
  %.neg16 = mul i64 %7, -1000000
  %8 = getelementptr inbounds nuw i8, ptr %3, i64 8
  %9 = load i64, ptr %8, align 8, !tbaa !50
  %.neg = sdiv i64 %9, -1000
  %.neg17 = add i64 %.neg, %.neg16
  br label %Abc_Clock.exit

Abc_Clock.exit:                                   ; preds = %1, %6
  %.0.i.neg = phi i64 [ %.neg17, %6 ], [ 1, %1 ]
  call void @llvm.lifetime.end.p0(i64 16, ptr nonnull %3) #17
  %10 = getelementptr i8, ptr %0, i64 20
  %.val18 = load i32, ptr %10, align 4, !tbaa !17
  %11 = icmp sgt i32 %.val18, 1
  br i1 %11, label %.lr.ph, label %._crit_edge

.lr.ph:                                           ; preds = %Abc_Clock.exit
  %12 = getelementptr i8, ptr %0, i64 72
  %13 = getelementptr inbounds nuw i8, ptr %0, i64 32
  br label %14

14:                                               ; preds = %.lr.ph, %26
  %.val22 = phi i32 [ %.val18, %.lr.ph ], [ %.val, %26 ]
  %indvars.iv = phi i64 [ 1, %.lr.ph ], [ %indvars.iv.next, %26 ]
  %.020 = phi i32 [ 0, %.lr.ph ], [ %.1, %26 ]
  %.val12 = load ptr, ptr %12, align 8, !tbaa !13
  %15 = getelementptr inbounds nuw i64, ptr %.val12, i64 %indvars.iv
  %16 = load i64, ptr %15, align 8, !tbaa !15
  %17 = icmp ugt i64 %16, -17179869191
  br i1 %17, label %26, label %18

18:                                               ; preds = %14
  %19 = load i32, ptr %13, align 8, !tbaa !47
  %20 = add i32 %19, 1
  store i32 %20, ptr %13, align 8, !tbaa !47
  %21 = trunc nuw nsw i64 %indvars.iv to i32
  %22 = call i32 @Agi_ManSuppSize_rec(ptr noundef nonnull %0, i32 noundef %21)
  %23 = icmp slt i32 %22, 17
  %24 = zext i1 %23 to i32
  %25 = add nsw i32 %.020, %24
  %.val.pre = load i32, ptr %10, align 4, !tbaa !17
  br label %26

26:                                               ; preds = %18, %14
  %.val = phi i32 [ %.val.pre, %18 ], [ %.val22, %14 ]
  %.1 = phi i32 [ %25, %18 ], [ %.020, %14 ]
  %indvars.iv.next = add nuw nsw i64 %indvars.iv, 1
  %27 = sext i32 %.val to i64
  %28 = icmp slt i64 %indvars.iv.next, %27
  br i1 %28, label %14, label %._crit_edge, !llvm.loop !51

._crit_edge:                                      ; preds = %26, %Abc_Clock.exit
  %.0.lcssa = phi i32 [ 0, %Abc_Clock.exit ], [ %.1, %26 ]
  %29 = getelementptr i8, ptr %0, i64 24
  %.val13 = load i32, ptr %29, align 8, !tbaa !40
  %30 = call i32 (ptr, ...) @printf(ptr noundef nonnull dereferenceable(1) @.str, i32 noundef %.0.lcssa, i32 noundef %.val13)
  call void @llvm.lifetime.start.p0(i64 16, ptr nonnull %2) #17
  %31 = call i32 @clock_gettime(i32 noundef 1, ptr noundef nonnull %2) #17
  %32 = icmp slt i32 %31, 0
  br i1 %32, label %Abc_Clock.exit15, label %33

33:                                               ; preds = %._crit_edge
  %34 = load i64, ptr %2, align 8, !tbaa !48
  %35 = mul nsw i64 %34, 1000000
  %36 = getelementptr inbounds nuw i8, ptr %2, i64 8
  %37 = load i64, ptr %36, align 8, !tbaa !50
  %38 = sdiv i64 %37, 1000
  %39 = add nsw i64 %38, %35
  br label %Abc_Clock.exit15

Abc_Clock.exit15:                                 ; preds = %._crit_edge, %33
  %.0.i14 = phi i64 [ %39, %33 ], [ -1, %._crit_edge ]
  call void @llvm.lifetime.end.p0(i64 16, ptr nonnull %2) #17
  %40 = add i64 %.0.i14, %.0.i.neg
  call void (i32, ptr, ...) @Abc_Print(i32 poison, ptr noundef nonnull @.str.2, ptr noundef nonnull @.str.1)
  %41 = sitofp i64 %40 to double
  %42 = fdiv double %41, 1.000000e+06
  call void (i32, ptr, ...) @Abc_Print(i32 poison, ptr noundef nonnull @.str.3, double noundef %42)
  ret i32 %.0.lcssa
}